; Function Attrs: nounwind uwtable
define ptr @l_Std_DHashMap_Internal_AssocList_foldlM___at_Lean_KeyedDeclsAttribute_mkStateOfTable___spec__3___rarg(ptr noundef %0, ptr noundef %1, ptr noundef %2) #1 {
  %4 = ptrtoint ptr %0 to i64
  %5 = and i64 %4, 1
  %.not39 = icmp eq i64 %5, 0
  br label %6

6:                                                ; preds = %lean_inc.exit, %3
  %.017 = phi ptr [ %2, %3 ], [ %46, %lean_inc.exit ]
  %.0 = phi ptr [ %1, %3 ], [ %68, %lean_inc.exit ]
  %7 = ptrtoint ptr %.017 to i64
  %8 = and i64 %7, 1
  %.not.i24 = icmp eq i64 %8, 0
  br i1 %.not.i24, label %12, label %9

9:                                                ; preds = %6
  %10 = lshr i64 %7, 1
  %11 = trunc i64 %10 to i32
  br label %lean_obj_tag.exit

12:                                               ; preds = %6
  %13 = getelementptr i8, ptr %.017, i64 4
  %.val.i = load i32, ptr %13, align 4
  %14 = lshr i32 %.val.i, 24
  br label %lean_obj_tag.exit

lean_obj_tag.exit:                                ; preds = %9, %12
  %.0.i = phi i32 [ %11, %9 ], [ %14, %12 ]
  %15 = icmp eq i32 %.0.i, 0
  br i1 %15, label %16, label %24

16:                                               ; preds = %lean_obj_tag.exit
  br i1 %.not39, label %17, label %lean_dec.exit18

17:                                               ; preds = %16
  %18 = load i32, ptr %0, align 4, !tbaa !4
  %19 = icmp sgt i32 %18, 1
  br i1 %19, label %20, label %22, !prof !11

20:                                               ; preds = %17
  %21 = add nsw i32 %18, -1
  store i32 %21, ptr %0, align 4, !tbaa !4
  br label %lean_dec.exit18

22:                                               ; preds = %17
  %.not.i = icmp eq i32 %18, 0
  br i1 %.not.i, label %lean_dec.exit18, label %23

23:                                               ; preds = %22
  tail call void @lean_dec_ref_cold(ptr noundef nonnull %0) #6
  br label %lean_dec.exit18

lean_dec.exit18:                                  ; preds = %23, %22, %20, %16
  ret ptr %.0

24:                                               ; preds = %lean_obj_tag.exit
  %25 = getelementptr inbounds nuw i8, ptr %.017, i64 8
  %26 = load ptr, ptr %25, align 8, !tbaa !9
  %27 = ptrtoint ptr %26 to i64
  %28 = and i64 %27, 1
  %.not = icmp eq i64 %28, 0
  br i1 %.not, label %29, label %lean_inc.exit21

29:                                               ; preds = %24
  %.val.i25 = load i32, ptr %26, align 4, !tbaa !4
  %30 = icmp sgt i32 %.val.i25, 0
  br i1 %30, label %31, label %33, !prof !11

31:                                               ; preds = %29
  %32 = add nuw i32 %.val.i25, 1
  store i32 %32, ptr %26, align 4, !tbaa !4
  br label %lean_inc.exit21

33:                                               ; preds = %29
  %.not.i26 = icmp eq i32 %.val.i25, 0
  br i1 %.not.i26, label %lean_inc.exit21, label %34

34:                                               ; preds = %33
  tail call void @lean_inc_ref_cold(ptr noundef nonnull %26) #6
  br label %lean_inc.exit21

lean_inc.exit21:                                  ; preds = %34, %33, %31, %24
  %35 = getelementptr inbounds nuw i8, ptr %.017, i64 16
  %36 = load ptr, ptr %35, align 8, !tbaa !9
  %37 = ptrtoint ptr %36 to i64
  %38 = and i64 %37, 1
  %.not36 = icmp eq i64 %38, 0
  br i1 %.not36, label %39, label %lean_inc.exit20

39:                                               ; preds = %lean_inc.exit21
  %.val.i27 = load i32, ptr %36, align 4, !tbaa !4
  %40 = icmp sgt i32 %.val.i27, 0
  br i1 %40, label %41, label %43, !prof !11

41:                                               ; preds = %39
  %42 = add nuw i32 %.val.i27, 1
  store i32 %42, ptr %36, align 4, !tbaa !4
  br label %lean_inc.exit20

43:                                               ; preds = %39
  %.not.i28 = icmp eq i32 %.val.i27, 0
  br i1 %.not.i28, label %lean_inc.exit20, label %44

44:                                               ; preds = %43
  tail call void @lean_inc_ref_cold(ptr noundef nonnull %36) #6
  br label %lean_inc.exit20

lean_inc.exit20:                                  ; preds = %44, %43, %41, %lean_inc.exit21
  %45 = getelementptr inbounds nuw i8, ptr %.017, i64 24
  %46 = load ptr, ptr %45, align 8, !tbaa !9
  %47 = ptrtoint ptr %46 to i64
  %48 = and i64 %47, 1
  %.not37 = icmp eq i64 %48, 0
  br i1 %.not37, label %49, label %lean_inc.exit19

49:                                               ; preds = %lean_inc.exit20
  %.val.i30 = load i32, ptr %46, align 4, !tbaa !4
  %50 = icmp sgt i32 %.val.i30, 0
  br i1 %50, label %51, label %53, !prof !11

51:                                               ; preds = %49
  %52 = add nuw i32 %.val.i30, 1
  store i32 %52, ptr %46, align 4, !tbaa !4
  br label %lean_inc.exit19

53:                                               ; preds = %49
  %.not.i31 = icmp eq i32 %.val.i30, 0
  br i1 %.not.i31, label %lean_inc.exit19, label %54

54:                                               ; preds = %53
  tail call void @lean_inc_ref_cold(ptr noundef nonnull %46) #6
  br label %lean_inc.exit19

lean_inc.exit19:                                  ; preds = %54, %53, %51, %lean_inc.exit20
  br i1 %.not.i24, label %55, label %lean_dec.exit

55:                                               ; preds = %lean_inc.exit19
  %56 = load i32, ptr %.017, align 4, !tbaa !4
  %57 = icmp sgt i32 %56, 1
  br i1 %57, label %58, label %60, !prof !11

58:                                               ; preds = %55
  %59 = add nsw i32 %56, -1
  store i32 %59, ptr %.017, align 4, !tbaa !4
  br label %lean_dec.exit

60:                                               ; preds = %55
  %.not.i22 = icmp eq i32 %56, 0
  br i1 %.not.i22, label %lean_dec.exit, label %61

61:                                               ; preds = %60
  tail call void @lean_dec_ref_cold(ptr noundef nonnull %.017) #6
  br label %lean_dec.exit

lean_dec.exit:                                    ; preds = %61, %60, %58, %lean_inc.exit19
  br i1 %.not39, label %62, label %lean_inc.exit

62:                                               ; preds = %lean_dec.exit
  %.val.i33 = load i32, ptr %0, align 4, !tbaa !4
  %63 = icmp sgt i32 %.val.i33, 0
  br i1 %63, label %64, label %66, !prof !11

64:                                               ; preds = %62
  %65 = add nuw i32 %.val.i33, 1
  store i32 %65, ptr %0, align 4, !tbaa !4
  br label %lean_inc.exit

66:                                               ; preds = %62
  %.not.i34 = icmp eq i32 %.val.i33, 0
  br i1 %.not.i34, label %lean_inc.exit, label %67

67:                                               ; preds = %66
  tail call void @lean_inc_ref_cold(ptr noundef nonnull %0) #6
  br label %lean_inc.exit

lean_inc.exit:                                    ; preds = %67, %66, %64, %lean_dec.exit
  %68 = tail call ptr @lean_apply_3(ptr noundef %0, ptr noundef %.0, ptr noundef %26, ptr noundef %36) #6
  br label %6
}